target datalayout = "e-m:e-p270:32:32-p271:32:32-p272:64:64-i64:64-i128:128-f80:128-n8:16:32:64-S128"
target triple = "x86_64-unknown-linux-gnu"

%class.symbol = type { ptr }
%"class.euf::th_solver" = type { %"class.sat::extension", %"class.euf::th_model_builder", %"class.euf::th_decompile", %"class.euf::th_internalizer", ptr }
%"class.sat::extension" = type { ptr, i8, i32, %class.symbol, ptr }
%"class.euf::th_model_builder" = type { ptr }
%"class.euf::th_decompile" = type { ptr }
%"class.euf::th_internalizer" = type { ptr, %class.ptr_vector, %class.svector }
%class.svector = type { %class.vector.0 }
%class.vector.0 = type { ptr }
%class.ptr_vector = type { %class.vector }
%class.vector = type { ptr }
%class.svector.1 = type { %class.vector.2 }
%class.vector.2 = type { ptr }
%"class.euf::th_euf_solver" = type <{ %"class.euf::th_solver", ptr, %class.ptr_vector, %class.svector.1, i32, [4 x i8] }>

; Function Attrs: mustprogress uwtable
define linkonce_odr hidden void @_ZN3euf13th_euf_solver10force_pushEv(ptr noundef nonnull align 8 dereferenceable(108) %this) #5 comdat align 2 {
entry:
  %this.addr = alloca ptr, align 8
  store ptr %this, ptr %this.addr, align 8
  %this1 = load ptr, ptr %this.addr, align 8
  br label %for.cond

for.cond:                                         ; preds = %for.inc, %entry
  %m_num_scopes = getelementptr inbounds %"class.euf::th_euf_solver", ptr %this1, i32 0, i32 4
  %0 = load i32, ptr %m_num_scopes, align 8
  %cmp = icmp ugt i32 %0, 0
  br i1 %cmp, label %for.body, label %for.end

for.body:                                         ; preds = %for.cond
  %vtable = load ptr, ptr %this1, align 8
  %vfn = getelementptr inbounds ptr, ptr %vtable, i64 62
  %1 = load ptr, ptr %vfn, align 8
  call void %1(ptr noundef nonnull align 8 dereferenceable(108) %this1)
  br label %for.inc

for.inc:                                          ; preds = %for.body
  %m_num_scopes2 = getelementptr inbounds %"class.euf::th_euf_solver", ptr %this1, i32 0, i32 4
  %2 = load i32, ptr %m_num_scopes2, align 8
  %dec = add i32 %2, -1
  store i32 %dec, ptr %m_num_scopes2, align 8
  br label %for.cond, !llvm.loop !6

for.end:                                          ; preds = %for.cond
  ret void
}

; Function Attrs: mustprogress uwtable
define hidden void @_ZN6recfun6solver11internalizeEP4expr(ptr noundef nonnull align 8 dereferenceable(268) %this, ptr noundef %e) unnamed_addr #5 align 2 {
entry:
  %this.addr = alloca ptr, align 8
  %e.addr = alloca ptr, align 8
  store ptr %this, ptr %this.addr, align 8
  store ptr %e, ptr %e.addr, align 8
  %this1 = load ptr, ptr %this.addr, align 8
  call void @_ZN3euf13th_euf_solver10force_pushEv(ptr noundef nonnull align 8 dereferenceable(108) %this1)
  %add.ptr = getelementptr inbounds i8, ptr %this1, i64 48
  %m = getelementptr inbounds %"class.euf::th_solver", ptr %this1, i32 0, i32 4
  %0 = load ptr, ptr %m, align 8
  %1 = load ptr, ptr %e.addr, align 8
  %call = call noundef zeroext i1 @_ZN3euf15th_internalizer9visit_recER11ast_managerP4exprbb(ptr noundef nonnull align 8 dereferenceable(24) %add.ptr, ptr noundef nonnull align 8 dereferenceable(976) %0, ptr noundef %1, i1 noundef zeroext false, i1 noundef zeroext false)
  ret void
}